target datalayout = "e-m:e-p270:32:32-p271:32:32-p272:64:64-i64:64-i128:128-f80:128-n8:16:32:64-S128"
target triple = "x86_64-unknown-linux-gnu"

%"class.proof_checker::hyp_decl_plugin" = type { %class.decl_plugin.base, ptr, ptr, ptr, ptr }
%class.decl_plugin.base = type <{ ptr, ptr, i32 }>

@.str.4 = private unnamed_addr constant [116 x i8] c"generated/home/dtcxzyw/WorkSpace/Projects/compilers/llvm-opt-benchmark/bench/z3/z3/src/ast/proofs/proof_checker.cpp\00", align 1
@.str.5 = private unnamed_addr constant [29 x i8] c"UNEXPECTED CODE WAS REACHED.\00", align 1

; Function Attrs: mustprogress uwtable
define hidden noundef ptr @_ZN13proof_checker15hyp_decl_plugin12mk_func_declEi(ptr noundef nonnull align 8 dereferenceable(56) %this, i32 noundef %k) #5 align 2 {
entry:
  %retval = alloca ptr, align 8
  %this.addr = alloca ptr, align 8
  %k.addr = alloca i32, align 4
  store ptr %this, ptr %this.addr, align 8
  store i32 %k, ptr %k.addr, align 4
  %this1 = load ptr, ptr %this.addr, align 8
  %0 = load i32, ptr %k.addr, align 4
  switch i32 %0, label %sw.default [
    i32 0, label %sw.bb
    i32 1, label %sw.bb2
    i32 2, label %sw.bb3
  ]

sw.bb:                                            ; preds = %entry
  %m_cons = getelementptr inbounds %"class.proof_checker::hyp_decl_plugin", ptr %this1, i32 0, i32 1
  %1 = load ptr, ptr %m_cons, align 8
  store ptr %1, ptr %retval, align 8
  br label %return

sw.bb2:                                           ; preds = %entry
  %m_atom = getelementptr inbounds %"class.proof_checker::hyp_decl_plugin", ptr %this1, i32 0, i32 2
  %2 = load ptr, ptr %m_atom, align 8
  store ptr %2, ptr %retval, align 8
  br label %return

sw.bb3:                                           ; preds = %entry
  %m_nil = getelementptr inbounds %"class.proof_checker::hyp_decl_plugin", ptr %this1, i32 0, i32 3
  %3 = load ptr, ptr %m_nil, align 8
  store ptr %3, ptr %retval, align 8
  br label %return

sw.default:                                       ; preds = %entry
  call void @_Z26notify_assertion_violationPKciS0_(ptr noundef @.str.4, i32 noundef 55, ptr noundef @.str.5)
  call void @exit(i32 noundef 114) #14
  unreachable

return:                                           ; preds = %sw.bb3, %sw.bb2, %sw.bb
  %4 = load ptr, ptr %retval, align 8
  ret ptr %4
}