; Function Attrs: mustprogress uwtable
define hidden noundef ptr @_ZN13proof_checker15hyp_decl_plugin12mk_func_declEi(ptr nocapture noundef nonnull readonly align 8 dereferenceable(56) %this, i32 noundef %k) local_unnamed_addr #4 align 2 {
entry:
  %0 = icmp ult i32 %k, 3
  br i1 %0, label %switch.lookup, label %sw.default

sw.default:                                       ; preds = %entry
  tail call void @_Z26notify_assertion_violationPKciS0_(ptr noundef nonnull @.str.4, i32 noundef 55, ptr noundef nonnull @.str.5)
  tail call void @exit(i32 noundef 114) #23
  unreachable

switch.lookup:                                    ; preds = %entry
  %1 = shl nuw nsw i32 %k, 3
  %2 = zext nneg i32 %1 to i64
  %3 = getelementptr i8, ptr %this, i64 %2
  %m_nil = getelementptr i8, ptr %3, i64 24
  %retval.0 = load ptr, ptr %m_nil, align 8
  ret ptr %retval.0
}